; Function Attrs: mustprogress nofree norecurse nosync nounwind willreturn memory(none) uwtable
define hidden range(i64 -9223372036854775807, -9223372036854775808) i64 @SDL_GetResampleRate(i32 noundef %0, i32 noundef %1) local_unnamed_addr #2 {
  %3 = sext i32 %0 to i64
  %4 = shl nsw i64 %3, 32
  %5 = sext i32 %1 to i64
  %6 = add nsw i64 %4, -1
  %7 = sdiv i64 %6, %5
  %8 = add nsw i64 %7, 1
  ret i64 %8
}